target datalayout = "e-m:e-p270:32:32-p271:32:32-p272:64:64-i64:64-i128:128-f80:128-n8:16:32:64-S128"
target triple = "x86_64-unknown-linux-gnu"

%"class.QuantLib::Date" = type { i64 }

; Function Attrs: inlinehint mustprogress uwtable
define linkonce_odr noundef i32 @_ZNK8QuantLib4Date9dayOfYearEv(ptr noundef nonnull align 8 dereferenceable(8) %this) #2 comdat align 2 {
entry:
  %this.addr = alloca ptr, align 8
  store ptr %this, ptr %this.addr, align 8, !tbaa !3
  %this1 = load ptr, ptr %this.addr, align 8
  %serialNumber_ = getelementptr inbounds nuw %"class.QuantLib::Date", ptr %this1, i32 0, i32 0
  %0 = load i64, ptr %serialNumber_, align 8, !tbaa !14
  %call = call noundef i32 @_ZNK8QuantLib4Date4yearEv(ptr noundef nonnull align 8 dereferenceable(8) %this1)
  %call2 = call noundef i64 @_ZN8QuantLib4Date10yearOffsetEi(i32 noundef %call)
  %sub = sub nsw i64 %0, %call2
  %conv = trunc i64 %sub to i32
  ret i32 %conv
}

; Function Attrs: inlinehint mustprogress uwtable
define linkonce_odr noundef i32 @_ZNK8QuantLib4Date10dayOfMonthEv(ptr noundef nonnull align 8 dereferenceable(8) %this) #2 comdat align 2 {
entry:
  %this.addr = alloca ptr, align 8
  store ptr %this, ptr %this.addr, align 8, !tbaa !3
  %this1 = load ptr, ptr %this.addr, align 8
  %call = call noundef i32 @_ZNK8QuantLib4Date9dayOfYearEv(ptr noundef nonnull align 8 dereferenceable(8) %this1)
  %call2 = call noundef i32 @_ZNK8QuantLib4Date5monthEv(ptr noundef nonnull align 8 dereferenceable(8) %this1)
  %call3 = call noundef i32 @_ZNK8QuantLib4Date4yearEv(ptr noundef nonnull align 8 dereferenceable(8) %this1)
  %call4 = call noundef zeroext i1 @_ZN8QuantLib4Date6isLeapEi(i32 noundef %call3)
  %call5 = call noundef i32 @_ZN8QuantLib4Date11monthOffsetENS_5MonthEb(i32 noundef %call2, i1 noundef zeroext %call4)
  %sub = sub nsw i32 %call, %call5
  ret i32 %sub
}

; Function Attrs: mustprogress uwtable
define noundef i64 @_ZNK8QuantLib9Thirty3654Impl8dayCountERKNS_4DateES4_(ptr noundef nonnull align 8 dereferenceable(8) %this, ptr noundef nonnull align 8 dereferenceable(8) %d1, ptr noundef nonnull align 8 dereferenceable(8) %d2) unnamed_addr #0 align 2 {
entry:
  %this.addr = alloca ptr, align 8
  %d1.addr = alloca ptr, align 8
  %d2.addr = alloca ptr, align 8
  %dd1 = alloca i32, align 4
  %dd2 = alloca i32, align 4
  %mm1 = alloca i32, align 4
  %mm2 = alloca i32, align 4
  %yy1 = alloca i32, align 4
  %yy2 = alloca i32, align 4
  store ptr %this, ptr %this.addr, align 8, !tbaa !3
  store ptr %d1, ptr %d1.addr, align 8, !tbaa !3
  store ptr %d2, ptr %d2.addr, align 8, !tbaa !3
  call void @llvm.lifetime.start.p0(i64 4, ptr %dd1) #14
  %0 = load ptr, ptr %d1.addr, align 8, !tbaa !3
  %call = call noundef i32 @_ZNK8QuantLib4Date10dayOfMonthEv(ptr noundef nonnull align 8 dereferenceable(8) %0)
  store i32 %call, ptr %dd1, align 4, !tbaa !7
  call void @llvm.lifetime.start.p0(i64 4, ptr %dd2) #14
  %1 = load ptr, ptr %d2.addr, align 8, !tbaa !3
  %call2 = call noundef i32 @_ZNK8QuantLib4Date10dayOfMonthEv(ptr noundef nonnull align 8 dereferenceable(8) %1)
  store i32 %call2, ptr %dd2, align 4, !tbaa !7
  call void @llvm.lifetime.start.p0(i64 4, ptr %mm1) #14
  %2 = load ptr, ptr %d1.addr, align 8, !tbaa !3
  %call3 = call noundef i32 @_ZNK8QuantLib4Date5monthEv(ptr noundef nonnull align 8 dereferenceable(8) %2)
  store i32 %call3, ptr %mm1, align 4, !tbaa !7
  call void @llvm.lifetime.start.p0(i64 4, ptr %mm2) #14
  %3 = load ptr, ptr %d2.addr, align 8, !tbaa !3
  %call4 = call noundef i32 @_ZNK8QuantLib4Date5monthEv(ptr noundef nonnull align 8 dereferenceable(8) %3)
  store i32 %call4, ptr %mm2, align 4, !tbaa !7
  call void @llvm.lifetime.start.p0(i64 4, ptr %yy1) #14
  %4 = load ptr, ptr %d1.addr, align 8, !tbaa !3
  %call5 = call noundef i32 @_ZNK8QuantLib4Date4yearEv(ptr noundef nonnull align 8 dereferenceable(8) %4)
  store i32 %call5, ptr %yy1, align 4, !tbaa !7
  call void @llvm.lifetime.start.p0(i64 4, ptr %yy2) #14
  %5 = load ptr, ptr %d2.addr, align 8, !tbaa !3
  %call6 = call noundef i32 @_ZNK8QuantLib4Date4yearEv(ptr noundef nonnull align 8 dereferenceable(8) %5)
  store i32 %call6, ptr %yy2, align 4, !tbaa !7
  %6 = load i32, ptr %yy2, align 4, !tbaa !7
  %7 = load i32, ptr %yy1, align 4, !tbaa !7
  %sub = sub nsw i32 %6, %7
  %mul = mul nsw i32 360, %sub
  %8 = load i32, ptr %mm2, align 4, !tbaa !7
  %9 = load i32, ptr %mm1, align 4, !tbaa !7
  %sub7 = sub nsw i32 %8, %9
  %mul8 = mul nsw i32 30, %sub7
  %add = add nsw i32 %mul, %mul8
  %10 = load i32, ptr %dd2, align 4, !tbaa !7
  %11 = load i32, ptr %dd1, align 4, !tbaa !7
  %sub9 = sub nsw i32 %10, %11
  %add10 = add nsw i32 %add, %sub9
  %conv = sext i32 %add10 to i64
  call void @llvm.lifetime.end.p0(i64 4, ptr %yy2) #14
  call void @llvm.lifetime.end.p0(i64 4, ptr %yy1) #14
  call void @llvm.lifetime.end.p0(i64 4, ptr %mm2) #14
  call void @llvm.lifetime.end.p0(i64 4, ptr %mm1) #14
  call void @llvm.lifetime.end.p0(i64 4, ptr %dd2) #14
  call void @llvm.lifetime.end.p0(i64 4, ptr %dd1) #14
  ret i64 %conv
}