; Function Attrs: mustprogress uwtable
define noundef range(i64 -2147483648, 2147483648) i64 @_ZNK8QuantLib9Thirty3654Impl8dayCountERKNS_4DateES4_(ptr nocapture nonnull readnone align 8 %this, ptr noundef nonnull align 8 dereferenceable(8) %d1, ptr noundef nonnull align 8 dereferenceable(8) %d2) unnamed_addr #0 align 2 {
entry:
  %0 = load i64, ptr %d1, align 8, !tbaa !3
  %call.i.i = tail call noundef i32 @_ZNK8QuantLib4Date4yearEv(ptr noundef nonnull align 8 dereferenceable(8) %d1)
  %call2.i.i = tail call noundef i64 @_ZN8QuantLib4Date10yearOffsetEi(i32 noundef %call.i.i)
  %sub.i.i.neg = sub i64 %call2.i.i, %0
  %conv.i.i.neg = trunc i64 %sub.i.i.neg to i32
  %call2.i = tail call noundef i32 @_ZNK8QuantLib4Date5monthEv(ptr noundef nonnull align 8 dereferenceable(8) %d1)
  %call3.i = tail call noundef i32 @_ZNK8QuantLib4Date4yearEv(ptr noundef nonnull align 8 dereferenceable(8) %d1)
  %call4.i = tail call noundef zeroext i1 @_ZN8QuantLib4Date6isLeapEi(i32 noundef %call3.i)
  %call5.i = tail call noundef i32 @_ZN8QuantLib4Date11monthOffsetENS_5MonthEb(i32 noundef %call2.i, i1 noundef zeroext %call4.i)
  %1 = load i64, ptr %d2, align 8, !tbaa !3
  %call.i.i5 = tail call noundef i32 @_ZNK8QuantLib4Date4yearEv(ptr noundef nonnull align 8 dereferenceable(8) %d2)
  %call2.i.i6 = tail call noundef i64 @_ZN8QuantLib4Date10yearOffsetEi(i32 noundef %call.i.i5)
  %sub.i.i7 = sub nsw i64 %1, %call2.i.i6
  %conv.i.i8 = trunc i64 %sub.i.i7 to i32
  %call2.i9 = tail call noundef i32 @_ZNK8QuantLib4Date5monthEv(ptr noundef nonnull align 8 dereferenceable(8) %d2)
  %call3.i10 = tail call noundef i32 @_ZNK8QuantLib4Date4yearEv(ptr noundef nonnull align 8 dereferenceable(8) %d2)
  %call4.i11 = tail call noundef zeroext i1 @_ZN8QuantLib4Date6isLeapEi(i32 noundef %call3.i10)
  %call5.i12 = tail call noundef i32 @_ZN8QuantLib4Date11monthOffsetENS_5MonthEb(i32 noundef %call2.i9, i1 noundef zeroext %call4.i11)
  %call3 = tail call noundef i32 @_ZNK8QuantLib4Date5monthEv(ptr noundef nonnull align 8 dereferenceable(8) %d1)
  %call4 = tail call noundef i32 @_ZNK8QuantLib4Date5monthEv(ptr noundef nonnull align 8 dereferenceable(8) %d2)
  %call5 = tail call noundef i32 @_ZNK8QuantLib4Date4yearEv(ptr noundef nonnull align 8 dereferenceable(8) %d1)
  %call6 = tail call noundef i32 @_ZNK8QuantLib4Date4yearEv(ptr noundef nonnull align 8 dereferenceable(8) %d2)
  %sub = sub nsw i32 %call6, %call5
  %mul = mul nsw i32 %sub, 360
  %sub7 = sub nsw i32 %call4, %call3
  %mul8 = mul nsw i32 %sub7, 30
  %add = add i32 %call5.i, %conv.i.i.neg
  %sub.i13 = add i32 %add, %conv.i.i8
  %sub.i.neg = sub i32 %sub.i13, %call5.i12
  %sub9 = add i32 %sub.i.neg, %mul8
  %add10 = add i32 %sub9, %mul
  %conv = sext i32 %add10 to i64
  ret i64 %conv
}